target datalayout = "e-m:e-p270:32:32-p271:32:32-p272:64:64-i64:64-i128:128-f80:128-n8:16:32:64-S128"
target triple = "x86_64-pc-linux-gnu"

%struct.lv_style_t = type { ptr, i32, i8 }
%struct.lv_color_t = type { i8, i8, i8 }
%struct._lv_anim_t = type { ptr, ptr, ptr, ptr, ptr, ptr, ptr, ptr, ptr, i32, i32, i32, i32, i32, i32, i32, i32, i32, %union._lv_anim_path_para_t, i32, i8 }
%union._lv_anim_path_para_t = type { %struct.lv_anim_bezier3_para_t }
%struct.lv_anim_bezier3_para_t = type { i16, i16, i16, i16 }

@font_normal = internal global ptr null, align 8
@style_icon = internal global %struct.lv_style_t zeroinitializer, align 8
@chart1 = internal global ptr null, align 8
@ser1 = internal global ptr null, align 8
@chart2 = internal global ptr null, align 8
@ser3 = internal global ptr null, align 8

; Function Attrs: nounwind uwtable
define internal void @color_event_cb(ptr noundef %0) #0 {
  %2 = alloca ptr, align 8
  %3 = alloca i32, align 4
  %4 = alloca ptr, align 8
  %5 = alloca ptr, align 8
  %6 = alloca %struct._lv_anim_t, align 8
  %7 = alloca ptr, align 8
  %8 = alloca i32, align 4
  %9 = alloca %struct.lv_color_t, align 1
  %10 = alloca %struct.lv_color_t, align 1
  %11 = alloca i24, align 4
  %12 = alloca i24, align 4
  %13 = alloca %struct.lv_color_t, align 1
  %14 = alloca i24, align 4
  %15 = alloca i24, align 4
  %16 = alloca i24, align 4
  store ptr %0, ptr %2, align 8, !tbaa !7
  call void @llvm.lifetime.start.p0(i64 4, ptr %3) #5
  %17 = load ptr, ptr %2, align 8, !tbaa !7
  %18 = call i32 @lv_event_get_code(ptr noundef %17)
  store i32 %18, ptr %3, align 4, !tbaa !3
  call void @llvm.lifetime.start.p0(i64 8, ptr %4) #5
  %19 = load ptr, ptr %2, align 8, !tbaa !7
  %20 = call ptr @lv_event_get_target(ptr noundef %19)
  store ptr %20, ptr %4, align 8, !tbaa !7
  %21 = load i32, ptr %3, align 4, !tbaa !3
  %22 = icmp eq i32 %21, 19
  br i1 %22, label %23, label %36

23:                                               ; preds = %1
  call void @llvm.lifetime.start.p0(i64 8, ptr %5) #5
  %24 = load ptr, ptr %4, align 8, !tbaa !7
  %25 = call ptr @lv_obj_get_parent(ptr noundef %24)
  store ptr %25, ptr %5, align 8, !tbaa !7
  %26 = load ptr, ptr %5, align 8, !tbaa !7
  %27 = call i32 @lv_obj_get_width(ptr noundef %26)
  %28 = call ptr @lv_display_get_default()
  %29 = call i32 @lv_display_get_horizontal_resolution(ptr noundef %28)
  %30 = sdiv i32 %29, 2
  %31 = icmp slt i32 %27, %30
  br i1 %31, label %32, label %35

32:                                               ; preds = %23
  call void @llvm.lifetime.start.p0(i64 128, ptr %6) #5
  call void @lv_anim_init(ptr noundef %6)
  %33 = load ptr, ptr %5, align 8, !tbaa !7
  call void @lv_anim_set_var(ptr noundef %6, ptr noundef %33)
  call void @lv_anim_set_exec_cb(ptr noundef %6, ptr noundef @color_changer_anim_cb)
  call void @lv_anim_set_values(ptr noundef %6, i32 noundef 0, i32 noundef 256)
  call void @lv_anim_set_duration(ptr noundef %6, i32 noundef 200)
  %34 = call ptr @lv_anim_start(ptr noundef %6)
  call void @llvm.lifetime.end.p0(i64 128, ptr %6) #5
  br label %35

35:                                               ; preds = %32, %23
  call void @llvm.lifetime.end.p0(i64 8, ptr %5) #5
  br label %69

36:                                               ; preds = %1
  %37 = load i32, ptr %3, align 4, !tbaa !3
  %38 = icmp eq i32 %37, 10
  br i1 %38, label %39, label %68

39:                                               ; preds = %36
  call void @llvm.lifetime.start.p0(i64 8, ptr %7) #5
  %40 = load ptr, ptr %2, align 8, !tbaa !7
  %41 = call ptr @lv_event_get_user_data(ptr noundef %40)
  store ptr %41, ptr %7, align 8, !tbaa !7
  call void @llvm.lifetime.start.p0(i64 4, ptr %8) #5
  %42 = load ptr, ptr %7, align 8, !tbaa !7
  %43 = load i32, ptr %42, align 4, !tbaa !3
  %44 = add i32 %43, 3
  store i32 %44, ptr %8, align 4, !tbaa !3
  %45 = load i32, ptr %8, align 4, !tbaa !3
  %46 = icmp uge i32 %45, 19
  br i1 %46, label %47, label %48

47:                                               ; preds = %39
  store i32 0, ptr %8, align 4, !tbaa !3
  br label %48

48:                                               ; preds = %47, %39
  %49 = load ptr, ptr %7, align 8, !tbaa !7
  %50 = load i32, ptr %49, align 4, !tbaa !3
  %51 = call i24 @lv_palette_main(i32 noundef %50)
  store i24 %51, ptr %9, align 1
  %52 = load i32, ptr %8, align 4, !tbaa !3
  %53 = call i24 @lv_palette_main(i32 noundef %52)
  store i24 %53, ptr %10, align 1
  %54 = load ptr, ptr @font_normal, align 8, !tbaa !7
  call void @llvm.memcpy.p0.p0.i64(ptr align 4 %11, ptr align 1 %9, i64 3, i1 false)
  %55 = load i24, ptr %11, align 4
  call void @llvm.memcpy.p0.p0.i64(ptr align 4 %12, ptr align 1 %10, i64 3, i1 false)
  %56 = load i24, ptr %12, align 4
  %57 = call ptr @lv_theme_default_init(ptr noundef null, i24 %55, i24 %56, i1 noundef zeroext false, ptr noundef %54)
  call void @llvm.lifetime.start.p0(i64 3, ptr %13) #5
  %58 = load ptr, ptr %7, align 8, !tbaa !7
  %59 = load i32, ptr %58, align 4, !tbaa !3
  %60 = call i24 @lv_palette_main(i32 noundef %59)
  store i24 %60, ptr %13, align 1
  call void @llvm.memcpy.p0.p0.i64(ptr align 4 %14, ptr align 1 %13, i64 3, i1 false)
  %61 = load i24, ptr %14, align 4
  call void @lv_style_set_text_color(ptr noundef @style_icon, i24 %61)
  %62 = load ptr, ptr @chart1, align 8, !tbaa !7
  %63 = load ptr, ptr @ser1, align 8, !tbaa !7
  call void @llvm.memcpy.p0.p0.i64(ptr align 4 %15, ptr align 1 %13, i64 3, i1 false)
  %64 = load i24, ptr %15, align 4
  call void @lv_chart_set_series_color(ptr noundef %62, ptr noundef %63, i24 %64)
  %65 = load ptr, ptr @chart2, align 8, !tbaa !7
  %66 = load ptr, ptr @ser3, align 8, !tbaa !7
  call void @llvm.memcpy.p0.p0.i64(ptr align 4 %16, ptr align 1 %13, i64 3, i1 false)
  %67 = load i24, ptr %16, align 4
  call void @lv_chart_set_series_color(ptr noundef %65, ptr noundef %66, i24 %67)
  call void @llvm.lifetime.end.p0(i64 3, ptr %13) #5
  call void @llvm.lifetime.end.p0(i64 4, ptr %8) #5
  call void @llvm.lifetime.end.p0(i64 8, ptr %7) #5
  br label %68

68:                                               ; preds = %48, %36
  br label %69

69:                                               ; preds = %68, %35
  call void @llvm.lifetime.end.p0(i64 8, ptr %4) #5
  call void @llvm.lifetime.end.p0(i64 4, ptr %3) #5
  ret void
}