; Function Attrs: nounwind uwtable
define internal void @color_event_cb(ptr noundef %0) #0 {
  %2 = alloca %struct._lv_anim_t, align 8
  %3 = tail call i32 @lv_event_get_code(ptr noundef %0) #5
  %4 = tail call ptr @lv_event_get_target(ptr noundef %0) #5
  switch i32 %3, label %29 [
    i32 19, label %5
    i32 10, label %14
  ]

5:                                                ; preds = %1
  %6 = tail call ptr @lv_obj_get_parent(ptr noundef %4) #5
  %7 = tail call i32 @lv_obj_get_width(ptr noundef %6) #5
  %8 = tail call ptr @lv_display_get_default() #5
  %9 = tail call i32 @lv_display_get_horizontal_resolution(ptr noundef %8) #5
  %10 = sdiv i32 %9, 2
  %11 = icmp slt i32 %7, %10
  br i1 %11, label %12, label %29

12:                                               ; preds = %5
  call void @llvm.lifetime.start.p0(i64 128, ptr nonnull %2) #5
  call void @lv_anim_init(ptr noundef nonnull %2) #5
  call void @lv_anim_set_var(ptr noundef nonnull %2, ptr noundef %6) #5
  call void @lv_anim_set_exec_cb(ptr noundef nonnull %2, ptr noundef nonnull @color_changer_anim_cb) #5
  call void @lv_anim_set_values(ptr noundef nonnull %2, i32 noundef 0, i32 noundef 256) #5
  call void @lv_anim_set_duration(ptr noundef nonnull %2, i32 noundef 200) #5
  %13 = call ptr @lv_anim_start(ptr noundef nonnull %2) #5
  call void @llvm.lifetime.end.p0(i64 128, ptr nonnull %2) #5
  br label %29

14:                                               ; preds = %1
  %15 = tail call ptr @lv_event_get_user_data(ptr noundef %0) #5
  %16 = load i32, ptr %15, align 4, !tbaa !3
  %17 = add i32 %16, 3
  %18 = icmp ugt i32 %17, 18
  %spec.store.select = select i1 %18, i32 0, i32 %17
  %19 = tail call i24 @lv_palette_main(i32 noundef %16) #5
  %20 = tail call i24 @lv_palette_main(i32 noundef %spec.store.select) #5
  %21 = load ptr, ptr @font_normal, align 8, !tbaa !7
  %22 = tail call ptr @lv_theme_default_init(ptr noundef null, i24 %19, i24 %20, i1 noundef zeroext false, ptr noundef %21) #5
  %23 = load i32, ptr %15, align 4, !tbaa !3
  %24 = tail call i24 @lv_palette_main(i32 noundef %23) #5
  tail call void @lv_style_set_text_color(ptr noundef nonnull @style_icon, i24 %24) #5
  %25 = load ptr, ptr @chart1, align 8, !tbaa !7
  %26 = load ptr, ptr @ser1, align 8, !tbaa !7
  tail call void @lv_chart_set_series_color(ptr noundef %25, ptr noundef %26, i24 %24) #5
  %27 = load ptr, ptr @chart2, align 8, !tbaa !7
  %28 = load ptr, ptr @ser3, align 8, !tbaa !7
  tail call void @lv_chart_set_series_color(ptr noundef %27, ptr noundef %28, i24 %24) #5
  br label %29

29:                                               ; preds = %1, %5, %12, %14
  ret void
}